; ModuleID = 'source-C-CXX/9/629.cpp'
source_filename = "source-C-CXX/9/629.cpp"
target datalayout = "e-m:e-p270:32:32-p271:32:32-p272:64:64-i64:64-f80:128-n8:16:32:64-S128"
target triple = "x86_64-pc-linux-gnu"

%"class.std::ios_base::Init" = type { i8 }
%"class.std::basic_istream" = type { i32 (...)**, i64, %"class.std::basic_ios" }
%"class.std::basic_ios" = type { %"class.std::ios_base", %"class.std::basic_ostream"*, i8, i8, %"class.std::basic_streambuf"*, %"class.std::ctype"*, %"class.std::num_put"*, %"class.std::num_get"* }
%"class.std::ios_base" = type { i32 (...)**, i64, i64, i32, i32, i32, %"struct.std::ios_base::_Callback_list"*, %"struct.std::ios_base::_Words", [8 x %"struct.std::ios_base::_Words"], i32, %"struct.std::ios_base::_Words"*, %"class.std::locale" }
%"struct.std::ios_base::_Callback_list" = type { %"struct.std::ios_base::_Callback_list"*, void (i32, %"class.std::ios_base"*, i32)*, i32, i32 }
%"struct.std::ios_base::_Words" = type { i8*, i64 }
%"class.std::locale" = type { %"class.std::locale::_Impl"* }
%"class.std::locale::_Impl" = type { i32, %"class.std::locale::facet"**, i64, %"class.std::locale::facet"**, i8** }
%"class.std::locale::facet" = type <{ i32 (...)**, i32, [4 x i8] }>
%"class.std::basic_ostream" = type { i32 (...)**, %"class.std::basic_ios" }
%"class.std::basic_streambuf" = type { i32 (...)**, i8*, i8*, i8*, i8*, i8*, i8*, %"class.std::locale" }
%"class.std::ctype" = type <{ %"class.std::locale::facet.base", [4 x i8], %struct.__locale_struct*, i8, [7 x i8], i32*, i32*, i16*, i8, [256 x i8], [256 x i8], i8, [6 x i8] }>
%"class.std::locale::facet.base" = type <{ i32 (...)**, i32 }>
%struct.__locale_struct = type { [13 x %struct.__locale_data*], i16*, i32*, i32*, [13 x i8*] }
%struct.__locale_data = type opaque
%"class.std::num_put" = type { %"class.std::locale::facet.base", [4 x i8] }
%"class.std::num_get" = type { %"class.std::locale::facet.base", [4 x i8] }

@_ZStL8__ioinit = internal global %"class.std::ios_base::Init" zeroinitializer, align 1
@__dso_handle = external hidden global i8
@_ZSt3cin = external global %"class.std::basic_istream", align 8
@_ZSt4cout = external global %"class.std::basic_ostream", align 8
@llvm.global_ctors = appending global [1 x { i32, void ()*, i8* }] [{ i32, void ()*, i8* } { i32 65535, void ()* @_GLOBAL__sub_I_629.cpp, i8* null }]

declare void @_ZNSt8ios_base4InitC1Ev(%"class.std::ios_base::Init"* nonnull align 1 dereferenceable(1)) unnamed_addr #0

; Function Attrs: nounwind
declare void @_ZNSt8ios_base4InitD1Ev(%"class.std::ios_base::Init"* nonnull align 1 dereferenceable(1)) unnamed_addr #1

; Function Attrs: nofree nounwind
declare i32 @__cxa_atexit(void (i8*)*, i8*, i8*) local_unnamed_addr #2

; Function Attrs: mustprogress norecurse sspstrong uwtable
define dso_local i32 @main() local_unnamed_addr #3 {
  %1 = alloca [25 x i32], align 16
  %2 = alloca [25 x i32], align 16
  %3 = alloca i32, align 4
  %4 = bitcast [25 x i32]* %1 to i8*
  call void @llvm.lifetime.start.p0i8(i64 100, i8* nonnull %4) #7
  %5 = bitcast [25 x i32]* %2 to i8*
  call void @llvm.lifetime.start.p0i8(i64 100, i8* nonnull %5) #7
  %6 = bitcast i32* %3 to i8*
  call void @llvm.lifetime.start.p0i8(i64 4, i8* nonnull %6) #7
  %7 = call nonnull align 8 dereferenceable(16) %"class.std::basic_istream"* @_ZNSirsERi(%"class.std::basic_istream"* nonnull align 8 dereferenceable(16) @_ZSt3cin, i32* nonnull align 4 dereferenceable(4) %3)
  %8 = load i32, i32* %3, align 4, !tbaa !5
  %9 = icmp sgt i32 %8, 0
  br i1 %9, label %81, label %141

10:                                               ; preds = %125
  %11 = icmp sgt i32 %129, 0
  br i1 %11, label %12, label %141

12:                                               ; preds = %10
  %13 = zext i32 %129 to i64
  %14 = icmp ult i32 %129, 8
  br i1 %14, label %78, label %15

15:                                               ; preds = %12
  %16 = and i64 %13, 4294967288
  %17 = add nsw i64 %16, -8
  %18 = lshr exact i64 %17, 3
  %19 = add nuw nsw i64 %18, 1
  %20 = and i64 %19, 1
  %21 = icmp eq i64 %17, 0
  br i1 %21, label %53, label %22

22:                                               ; preds = %15
  %23 = and i64 %19, 4611686018427387902
  br label %24

24:                                               ; preds = %24, %22
  %25 = phi i64 [ 0, %22 ], [ %50, %24 ]
  %26 = phi <4 x i32> [ zeroinitializer, %22 ], [ %48, %24 ]
  %27 = phi <4 x i32> [ zeroinitializer, %22 ], [ %49, %24 ]
  %28 = phi i64 [ %23, %22 ], [ %51, %24 ]
  %29 = getelementptr inbounds [25 x i32], [25 x i32]* %1, i64 0, i64 %25
  %30 = bitcast i32* %29 to <4 x i32>*
  %31 = load <4 x i32>, <4 x i32>* %30, align 16, !tbaa !5
  %32 = getelementptr inbounds i32, i32* %29, i64 4
  %33 = bitcast i32* %32 to <4 x i32>*
  %34 = load <4 x i32>, <4 x i32>* %33, align 16, !tbaa !5
  %35 = icmp slt <4 x i32> %26, %31
  %36 = icmp slt <4 x i32> %27, %34
  %37 = select <4 x i1> %35, <4 x i32> %31, <4 x i32> %26
  %38 = select <4 x i1> %36, <4 x i32> %34, <4 x i32> %27
  %39 = or i64 %25, 8
  %40 = getelementptr inbounds [25 x i32], [25 x i32]* %1, i64 0, i64 %39
  %41 = bitcast i32* %40 to <4 x i32>*
  %42 = load <4 x i32>, <4 x i32>* %41, align 16, !tbaa !5
  %43 = getelementptr inbounds i32, i32* %40, i64 4
  %44 = bitcast i32* %43 to <4 x i32>*
  %45 = load <4 x i32>, <4 x i32>* %44, align 16, !tbaa !5
  %46 = icmp slt <4 x i32> %37, %42
  %47 = icmp slt <4 x i32> %38, %45
  %48 = select <4 x i1> %46, <4 x i32> %42, <4 x i32> %37
  %49 = select <4 x i1> %47, <4 x i32> %45, <4 x i32> %38
  %50 = add nuw i64 %25, 16
  %51 = add i64 %28, -2
  %52 = icmp eq i64 %51, 0
  br i1 %52, label %53, label %24, !llvm.loop !9

53:                                               ; preds = %24, %15
  %54 = phi <4 x i32> [ undef, %15 ], [ %48, %24 ]
  %55 = phi <4 x i32> [ undef, %15 ], [ %49, %24 ]
  %56 = phi i64 [ 0, %15 ], [ %50, %24 ]
  %57 = phi <4 x i32> [ zeroinitializer, %15 ], [ %48, %24 ]
  %58 = phi <4 x i32> [ zeroinitializer, %15 ], [ %49, %24 ]
  %59 = icmp eq i64 %20, 0
  br i1 %59, label %71, label %60

60:                                               ; preds = %53
  %61 = getelementptr inbounds [25 x i32], [25 x i32]* %1, i64 0, i64 %56
  %62 = bitcast i32* %61 to <4 x i32>*
  %63 = load <4 x i32>, <4 x i32>* %62, align 16, !tbaa !5
  %64 = getelementptr inbounds i32, i32* %61, i64 4
  %65 = bitcast i32* %64 to <4 x i32>*
  %66 = load <4 x i32>, <4 x i32>* %65, align 16, !tbaa !5
  %67 = icmp slt <4 x i32> %58, %66
  %68 = select <4 x i1> %67, <4 x i32> %66, <4 x i32> %58
  %69 = icmp slt <4 x i32> %57, %63
  %70 = select <4 x i1> %69, <4 x i32> %63, <4 x i32> %57
  br label %71

71:                                               ; preds = %53, %60
  %72 = phi <4 x i32> [ %54, %53 ], [ %70, %60 ]
  %73 = phi <4 x i32> [ %55, %53 ], [ %68, %60 ]
  %74 = icmp sgt <4 x i32> %72, %73
  %75 = select <4 x i1> %74, <4 x i32> %72, <4 x i32> %73
  %76 = call i32 @llvm.vector.reduce.smax.v4i32(<4 x i32> %75)
  %77 = icmp eq i64 %16, %13
  br i1 %77, label %141, label %78

78:                                               ; preds = %12, %71
  %79 = phi i64 [ 0, %12 ], [ %16, %71 ]
  %80 = phi i32 [ 0, %12 ], [ %76, %71 ]
  br label %132

81:                                               ; preds = %0, %125
  %82 = phi i64 [ %128, %125 ], [ 0, %0 ]
  %83 = getelementptr inbounds [25 x i32], [25 x i32]* %2, i64 0, i64 %82
  %84 = call nonnull align 8 dereferenceable(16) %"class.std::basic_istream"* @_ZNSirsERi(%"class.std::basic_istream"* nonnull align 8 dereferenceable(16) @_ZSt3cin, i32* nonnull align 4 dereferenceable(4) %83)
  %85 = getelementptr inbounds [25 x i32], [25 x i32]* %1, i64 0, i64 %82
  store i32 1, i32* %85, align 4, !tbaa !5
  %86 = icmp eq i64 %82, 0
  br i1 %86, label %125, label %87

87:                                               ; preds = %81
  %88 = load i32, i32* %83, align 4, !tbaa !5
  %89 = and i64 %82, 1
  %90 = icmp eq i64 %82, 1
  br i1 %90, label %111, label %91

91:                                               ; preds = %87
  %92 = and i64 %82, 9223372036854775806
  br label %93

93:                                               ; preds = %149, %91
  %94 = phi i64 [ 0, %91 ], [ %151, %149 ]
  %95 = phi i32 [ 0, %91 ], [ %150, %149 ]
  %96 = phi i64 [ %92, %91 ], [ %152, %149 ]
  %97 = getelementptr inbounds [25 x i32], [25 x i32]* %2, i64 0, i64 %94
  %98 = load i32, i32* %97, align 8, !tbaa !5
  %99 = icmp slt i32 %98, %88
  br i1 %99, label %105, label %100

100:                                              ; preds = %93
  %101 = getelementptr inbounds [25 x i32], [25 x i32]* %1, i64 0, i64 %94
  %102 = load i32, i32* %101, align 8, !tbaa !5
  %103 = icmp sgt i32 %102, %95
  %104 = select i1 %103, i32 %102, i32 %95
  br label %105

105:                                              ; preds = %100, %93
  %106 = phi i32 [ %95, %93 ], [ %104, %100 ]
  %107 = or i64 %94, 1
  %108 = getelementptr inbounds [25 x i32], [25 x i32]* %2, i64 0, i64 %107
  %109 = load i32, i32* %108, align 4, !tbaa !5
  %110 = icmp slt i32 %109, %88
  br i1 %110, label %149, label %144

111:                                              ; preds = %149, %87
  %112 = phi i32 [ undef, %87 ], [ %150, %149 ]
  %113 = phi i64 [ 0, %87 ], [ %151, %149 ]
  %114 = phi i32 [ 0, %87 ], [ %150, %149 ]
  %115 = icmp eq i64 %89, 0
  br i1 %115, label %125, label %116

116:                                              ; preds = %111
  %117 = getelementptr inbounds [25 x i32], [25 x i32]* %2, i64 0, i64 %113
  %118 = load i32, i32* %117, align 4, !tbaa !5
  %119 = icmp slt i32 %118, %88
  br i1 %119, label %125, label %120

120:                                              ; preds = %116
  %121 = getelementptr inbounds [25 x i32], [25 x i32]* %1, i64 0, i64 %113
  %122 = load i32, i32* %121, align 4, !tbaa !5
  %123 = icmp sgt i32 %122, %114
  %124 = select i1 %123, i32 %122, i32 %114
  br label %125

125:                                              ; preds = %111, %116, %120, %81
  %126 = phi i32 [ 0, %81 ], [ %112, %111 ], [ %114, %116 ], [ %124, %120 ]
  %127 = add nsw i32 %126, 1
  store i32 %127, i32* %85, align 4, !tbaa !5
  %128 = add nuw nsw i64 %82, 1
  %129 = load i32, i32* %3, align 4, !tbaa !5
  %130 = sext i32 %129 to i64
  %131 = icmp slt i64 %128, %130
  br i1 %131, label %81, label %10, !llvm.loop !12

132:                                              ; preds = %78, %132
  %133 = phi i64 [ %139, %132 ], [ %79, %78 ]
  %134 = phi i32 [ %138, %132 ], [ %80, %78 ]
  %135 = getelementptr inbounds [25 x i32], [25 x i32]* %1, i64 0, i64 %133
  %136 = load i32, i32* %135, align 4, !tbaa !5
  %137 = icmp slt i32 %134, %136
  %138 = select i1 %137, i32 %136, i32 %134
  %139 = add nuw nsw i64 %133, 1
  %140 = icmp eq i64 %139, %13
  br i1 %140, label %141, label %132, !llvm.loop !13

141:                                              ; preds = %132, %71, %0, %10
  %142 = phi i32 [ 0, %10 ], [ 0, %0 ], [ %76, %71 ], [ %138, %132 ]
  %143 = call nonnull align 8 dereferenceable(8) %"class.std::basic_ostream"* @_ZNSolsEi(%"class.std::basic_ostream"* nonnull align 8 dereferenceable(8) @_ZSt4cout, i32 %142)
  call void @llvm.lifetime.end.p0i8(i64 4, i8* nonnull %6) #7
  call void @llvm.lifetime.end.p0i8(i64 100, i8* nonnull %5) #7
  call void @llvm.lifetime.end.p0i8(i64 100, i8* nonnull %4) #7
  ret i32 0

144:                                              ; preds = %105
  %145 = getelementptr inbounds [25 x i32], [25 x i32]* %1, i64 0, i64 %107
  %146 = load i32, i32* %145, align 4, !tbaa !5
  %147 = icmp sgt i32 %146, %106
  %148 = select i1 %147, i32 %146, i32 %106
  br label %149

149:                                              ; preds = %144, %105
  %150 = phi i32 [ %106, %105 ], [ %148, %144 ]
  %151 = add nuw nsw i64 %94, 2
  %152 = add i64 %96, -2
  %153 = icmp eq i64 %152, 0
  br i1 %153, label %111, label %93, !llvm.loop !15
}

; Function Attrs: argmemonly mustprogress nofree nosync nounwind willreturn
declare void @llvm.lifetime.start.p0i8(i64 immarg, i8* nocapture) #4

declare nonnull align 8 dereferenceable(16) %"class.std::basic_istream"* @_ZNSirsERi(%"class.std::basic_istream"* nonnull align 8 dereferenceable(16), i32* nonnull align 4 dereferenceable(4)) local_unnamed_addr #0

declare nonnull align 8 dereferenceable(8) %"class.std::basic_ostream"* @_ZNSolsEi(%"class.std::basic_ostream"* nonnull align 8 dereferenceable(8), i32) local_unnamed_addr #0

; Function Attrs: argmemonly mustprogress nofree nosync nounwind willreturn
declare void @llvm.lifetime.end.p0i8(i64 immarg, i8* nocapture) #4

; Function Attrs: sspstrong uwtable
define internal void @_GLOBAL__sub_I_629.cpp() #5 section ".text.startup" {
  tail call void @_ZNSt8ios_base4InitC1Ev(%"class.std::ios_base::Init"* nonnull align 1 dereferenceable(1) @_ZStL8__ioinit)
  %1 = tail call i32 @__cxa_atexit(void (i8*)* bitcast (void (%"class.std::ios_base::Init"*)* @_ZNSt8ios_base4InitD1Ev to void (i8*)*), i8* getelementptr inbounds (%"class.std::ios_base::Init", %"class.std::ios_base::Init"* @_ZStL8__ioinit, i64 0, i32 0), i8* nonnull @__dso_handle) #7
  ret void
}

; Function Attrs: nofree nosync nounwind readnone willreturn
declare i32 @llvm.vector.reduce.smax.v4i32(<4 x i32>) #6


!llvm.module.flags = !{!0, !1, !2, !3}
!llvm.ident = !{!4}

!0 = !{i32 1, !"wchar_size", i32 4}
!1 = !{i32 7, !"PIC Level", i32 2}
!2 = !{i32 7, !"PIE Level", i32 2}
!3 = !{i32 7, !"uwtable", i32 1}
!4 = !{!"clang version 13.0.0"}
!5 = !{!6, !6, i64 0}
!6 = !{!"int", !7, i64 0}
!7 = !{!"omnipotent char", !8, i64 0}
!8 = !{!"Simple C++ TBAA"}
!9 = distinct !{!9, !10, !11}
!10 = !{!"llvm.loop.mustprogress"}
!11 = !{!"llvm.loop.isvectorized", i32 1}
!12 = distinct !{!12, !10}
!13 = distinct !{!13, !10, !14, !11}
!14 = !{!"llvm.loop.unroll.runtime.disable"}
!15 = distinct !{!15, !10}
